; Function Attrs: mustprogress uwtable
define noundef zeroext i1 @_ZNK6icu_776NFRuleeqERKS0_(ptr noundef nonnull align 8 dereferenceable(112) %0, ptr noundef nonnull align 8 dereferenceable(112) %1) local_unnamed_addr #0 align 2 {
  %3 = load i64, ptr %0, align 8, !tbaa !3
  %4 = load i64, ptr %1, align 8, !tbaa !3
  %5 = icmp eq i64 %3, %4
  br i1 %5, label %6, label %_ZNK6icu_7713UnicodeStringeqERKS0_.exit.thread

6:                                                ; preds = %2
  %7 = getelementptr inbounds nuw i8, ptr %0, i64 8
  %8 = load i32, ptr %7, align 8, !tbaa !18
  %9 = getelementptr inbounds nuw i8, ptr %1, i64 8
  %10 = load i32, ptr %9, align 8, !tbaa !18
  %11 = icmp eq i32 %8, %10
  br i1 %11, label %12, label %_ZNK6icu_7713UnicodeStringeqERKS0_.exit.thread

12:                                               ; preds = %6
  %13 = getelementptr inbounds nuw i8, ptr %0, i64 12
  %14 = load i16, ptr %13, align 4, !tbaa !19
  %15 = getelementptr inbounds nuw i8, ptr %1, i64 12
  %16 = load i16, ptr %15, align 4, !tbaa !19
  %17 = icmp eq i16 %14, %16
  br i1 %17, label %18, label %_ZNK6icu_7713UnicodeStringeqERKS0_.exit.thread

18:                                               ; preds = %12
  %19 = getelementptr inbounds nuw i8, ptr %0, i64 16
  %20 = getelementptr inbounds nuw i8, ptr %0, i64 24
  %21 = load i16, ptr %20, align 8, !tbaa !23
  %22 = and i16 %21, 1
  %.not.i = icmp eq i16 %22, 0
  br i1 %.not.i, label %27, label %23

23:                                               ; preds = %18
  %24 = getelementptr inbounds nuw i8, ptr %1, i64 24
  %25 = load i16, ptr %24, align 8, !tbaa !23
  %26 = and i16 %25, 1
  %.not19 = icmp eq i16 %26, 0
  br i1 %.not19, label %_ZNK6icu_7713UnicodeStringeqERKS0_.exit.thread, label %50

27:                                               ; preds = %18
  %28 = icmp slt i16 %21, 0
  %29 = ashr i16 %21, 5
  %30 = sext i16 %29 to i32
  %31 = getelementptr inbounds nuw i8, ptr %0, i64 28
  %32 = load i32, ptr %31, align 4
  %33 = select i1 %28, i32 %32, i32 %30
  %34 = getelementptr inbounds nuw i8, ptr %1, i64 24
  %35 = load i16, ptr %34, align 8, !tbaa !23
  %36 = icmp slt i16 %35, 0
  %37 = ashr i16 %35, 5
  %38 = sext i16 %37 to i32
  %39 = getelementptr inbounds nuw i8, ptr %1, i64 28
  %40 = load i32, ptr %39, align 4
  %41 = select i1 %36, i32 %40, i32 %38
  %42 = and i16 %35, 1
  %.not9.i = icmp eq i16 %42, 0
  %43 = icmp eq i32 %33, %41
  %or.cond.i = and i1 %.not9.i, %43
  br i1 %or.cond.i, label %_ZNK6icu_7713UnicodeStringeqERKS0_.exit, label %_ZNK6icu_7713UnicodeStringeqERKS0_.exit.thread

_ZNK6icu_7713UnicodeStringeqERKS0_.exit:          ; preds = %27
  %44 = and i16 %35, 2
  %.not.i.i.i = icmp eq i16 %44, 0
  %45 = getelementptr inbounds nuw i8, ptr %1, i64 26
  %46 = getelementptr inbounds nuw i8, ptr %1, i64 40
  %47 = load ptr, ptr %46, align 8
  %48 = select i1 %.not.i.i.i, ptr %47, ptr %45
  %49 = tail call noundef signext i8 @_ZNK6icu_7713UnicodeString8doEqualsEPKDsi(ptr noundef nonnull align 8 dereferenceable(64) %19, ptr noundef %48, i32 noundef %33)
  %.not20 = icmp eq i8 %49, 0
  br i1 %.not20, label %_ZNK6icu_7713UnicodeStringeqERKS0_.exit.thread, label %50

50:                                               ; preds = %23, %_ZNK6icu_7713UnicodeStringeqERKS0_.exit
  %51 = getelementptr inbounds nuw i8, ptr %0, i64 80
  %52 = load ptr, ptr %51, align 8, !tbaa !38
  %53 = getelementptr inbounds nuw i8, ptr %1, i64 80
  %54 = load ptr, ptr %53, align 8, !tbaa !38
  %.not.i7 = icmp eq ptr %52, null
  %.not7.i = icmp eq ptr %54, null
  br i1 %.not.i7, label %56, label %55

55:                                               ; preds = %50
  br i1 %.not7.i, label %_ZNK6icu_7713UnicodeStringeqERKS0_.exit.thread, label %_ZN6icu_77L23util_equalSubstitutionsEPKNS_14NFSubstitutionES2_.exit

56:                                               ; preds = %50
  br i1 %.not7.i, label %_ZN6icu_77L23util_equalSubstitutionsEPKNS_14NFSubstitutionES2_.exit.thread16, label %_ZNK6icu_7713UnicodeStringeqERKS0_.exit.thread

_ZN6icu_77L23util_equalSubstitutionsEPKNS_14NFSubstitutionES2_.exit: ; preds = %55
  %57 = load ptr, ptr %52, align 8, !tbaa !24
  %58 = getelementptr inbounds nuw i8, ptr %57, i64 24
  %59 = load ptr, ptr %58, align 8
  %60 = tail call noundef zeroext i1 %59(ptr noundef nonnull align 8 dereferenceable(32) %52, ptr noundef nonnull align 8 dereferenceable(32) %54)
  br i1 %60, label %_ZN6icu_77L23util_equalSubstitutionsEPKNS_14NFSubstitutionES2_.exit.thread16, label %_ZNK6icu_7713UnicodeStringeqERKS0_.exit.thread

_ZN6icu_77L23util_equalSubstitutionsEPKNS_14NFSubstitutionES2_.exit.thread16: ; preds = %56, %_ZN6icu_77L23util_equalSubstitutionsEPKNS_14NFSubstitutionES2_.exit
  %61 = getelementptr inbounds nuw i8, ptr %0, i64 88
  %62 = load ptr, ptr %61, align 8, !tbaa !39
  %63 = getelementptr inbounds nuw i8, ptr %1, i64 88
  %64 = load ptr, ptr %63, align 8, !tbaa !39
  %.not.i9 = icmp eq ptr %62, null
  %.not7.i10 = icmp eq ptr %64, null
  br i1 %.not.i9, label %71, label %65

65:                                               ; preds = %_ZN6icu_77L23util_equalSubstitutionsEPKNS_14NFSubstitutionES2_.exit.thread16
  br i1 %.not7.i10, label %72, label %66

66:                                               ; preds = %65
  %67 = load ptr, ptr %62, align 8, !tbaa !24
  %68 = getelementptr inbounds nuw i8, ptr %67, i64 24
  %69 = load ptr, ptr %68, align 8
  %70 = tail call noundef zeroext i1 %69(ptr noundef nonnull align 8 dereferenceable(32) %62, ptr noundef nonnull align 8 dereferenceable(32) %64)
  br label %_ZNK6icu_7713UnicodeStringeqERKS0_.exit.thread

71:                                               ; preds = %_ZN6icu_77L23util_equalSubstitutionsEPKNS_14NFSubstitutionES2_.exit.thread16
  br i1 %.not7.i10, label %_ZNK6icu_7713UnicodeStringeqERKS0_.exit.thread, label %72

72:                                               ; preds = %71, %65
  br label %_ZNK6icu_7713UnicodeStringeqERKS0_.exit.thread

_ZNK6icu_7713UnicodeStringeqERKS0_.exit.thread:   ; preds = %72, %71, %66, %56, %55, %27, %23, %_ZN6icu_77L23util_equalSubstitutionsEPKNS_14NFSubstitutionES2_.exit, %_ZNK6icu_7713UnicodeStringeqERKS0_.exit, %12, %6, %2
  %73 = phi i1 [ false, %_ZN6icu_77L23util_equalSubstitutionsEPKNS_14NFSubstitutionES2_.exit ], [ false, %_ZNK6icu_7713UnicodeStringeqERKS0_.exit ], [ false, %12 ], [ false, %6 ], [ false, %2 ], [ false, %23 ], [ false, %27 ], [ false, %55 ], [ false, %56 ], [ %70, %66 ], [ false, %72 ], [ true, %71 ]
  ret i1 %73
}